; Function Attrs: mustprogress nounwind uwtable
define internal void @_ZNSt15_Sp_counted_ptrIPN32pxrInternal_v0_24__pxrReserved__12_GLOBAL__N_157Hd_PrefixingSceneIndexAbsoluteRootPrimContainerDataSourceELN9__gnu_cxx12_Lock_policyE2EE10_M_disposeEv(ptr nocapture noundef nonnull readonly align 8 dereferenceable(24) %0) unnamed_addr #3 align 2 {
  %2 = getelementptr inbounds nuw i8, ptr %0, i64 16
  %3 = load ptr, ptr %2, align 8
  %4 = icmp eq ptr %3, null
  br i1 %4, label %6, label %5

5:                                                ; preds = %1
  tail call void @_ZN32pxrInternal_v0_24__pxrReserved__12_GLOBAL__N_141Hd_PrefixingSceneIndexContainerDataSourceD2Ev(ptr noundef nonnull align 8 dereferenceable(32) %3) #22
  tail call void @_ZdlPvm(ptr noundef nonnull %3, i64 noundef 32) #23
  br label %6

6:                                                ; preds = %5, %1
  ret void
}